target datalayout = "e-m:e-p270:32:32-p271:32:32-p272:64:64-i64:64-i128:128-f80:128-n8:16:32:64-S128"
target triple = "x86_64-pc-linux-gnu"

%struct.stbi_io_callbacks = type { ptr, ptr, ptr }
%struct.stbi__context = type { i32, i32, i32, i32, %struct.stbi_io_callbacks, ptr, i32, i32, [128 x i8], i32, ptr, ptr, ptr, ptr }

@.str.77 = private unnamed_addr constant [23 x i8] c"FORMAT=32-bit_rle_rgbe\00", align 1
@.str.79 = private unnamed_addr constant [4 x i8] c"-Y \00", align 1
@.str.81 = private unnamed_addr constant [4 x i8] c"+X \00", align 1

; Function Attrs: mustprogress nounwind uwtable
define internal void @_ZL12stbi__rewindP13stbi__context(ptr noundef %0) #0 {
  %2 = alloca ptr, align 8
  store ptr %0, ptr %2, align 8, !tbaa !9
  %3 = load ptr, ptr %2, align 8, !tbaa !9
  %4 = getelementptr inbounds nuw %struct.stbi__context, ptr %3, i32 0, i32 12
  %5 = load ptr, ptr %4, align 8, !tbaa !27
  %6 = load ptr, ptr %2, align 8, !tbaa !9
  %7 = getelementptr inbounds nuw %struct.stbi__context, ptr %6, i32 0, i32 10
  store ptr %5, ptr %7, align 8, !tbaa !19
  %8 = load ptr, ptr %2, align 8, !tbaa !9
  %9 = getelementptr inbounds nuw %struct.stbi__context, ptr %8, i32 0, i32 13
  %10 = load ptr, ptr %9, align 8, !tbaa !28
  %11 = load ptr, ptr %2, align 8, !tbaa !9
  %12 = getelementptr inbounds nuw %struct.stbi__context, ptr %11, i32 0, i32 11
  store ptr %10, ptr %12, align 8, !tbaa !16
  ret void
}

; Function Attrs: mustprogress uwtable
define internal noundef i32 @_ZL14stbi__hdr_infoP13stbi__contextPiS1_S1_(ptr noundef %0, ptr noundef %1, ptr noundef %2, ptr noundef %3) #3 {
  %5 = alloca i32, align 4
  %6 = alloca ptr, align 8
  %7 = alloca ptr, align 8
  %8 = alloca ptr, align 8
  %9 = alloca ptr, align 8
  %10 = alloca [1024 x i8], align 16
  %11 = alloca ptr, align 8
  %12 = alloca i32, align 4
  %13 = alloca i32, align 4
  %14 = alloca i32, align 4
  store ptr %0, ptr %6, align 8, !tbaa !9
  store ptr %1, ptr %7, align 8, !tbaa !12
  store ptr %2, ptr %8, align 8, !tbaa !12
  store ptr %3, ptr %9, align 8, !tbaa !12
  call void @llvm.lifetime.start.p0(i64 1024, ptr %10) #22
  call void @llvm.lifetime.start.p0(i64 8, ptr %11) #22
  call void @llvm.lifetime.start.p0(i64 4, ptr %12) #22
  store i32 0, ptr %12, align 4, !tbaa !10
  call void @llvm.lifetime.start.p0(i64 4, ptr %13) #22
  %15 = load ptr, ptr %7, align 8, !tbaa !12
  %16 = icmp ne ptr %15, null
  br i1 %16, label %18, label %17

17:                                               ; preds = %4
  store ptr %13, ptr %7, align 8, !tbaa !12
  br label %18

18:                                               ; preds = %17, %4
  %19 = load ptr, ptr %8, align 8, !tbaa !12
  %20 = icmp ne ptr %19, null
  br i1 %20, label %22, label %21

21:                                               ; preds = %18
  store ptr %13, ptr %8, align 8, !tbaa !12
  br label %22

22:                                               ; preds = %21, %18
  %23 = load ptr, ptr %9, align 8, !tbaa !12
  %24 = icmp ne ptr %23, null
  br i1 %24, label %26, label %25

25:                                               ; preds = %22
  store ptr %13, ptr %9, align 8, !tbaa !12
  br label %26

26:                                               ; preds = %25, %22
  %27 = load ptr, ptr %6, align 8, !tbaa !9
  %28 = call noundef i32 @_ZL14stbi__hdr_testP13stbi__context(ptr noundef %27)
  %29 = icmp eq i32 %28, 0
  br i1 %29, label %30, label %32

30:                                               ; preds = %26
  %31 = load ptr, ptr %6, align 8, !tbaa !9
  call void @_ZL12stbi__rewindP13stbi__context(ptr noundef %31)
  store i32 0, ptr %5, align 4
  store i32 1, ptr %14, align 4
  br label %92

32:                                               ; preds = %26
  br label %33

33:                                               ; preds = %48, %32
  %34 = load ptr, ptr %6, align 8, !tbaa !9
  %35 = getelementptr inbounds [1024 x i8], ptr %10, i64 0, i64 0
  %36 = call noundef ptr @_ZL18stbi__hdr_gettokenP13stbi__contextPc(ptr noundef %34, ptr noundef %35)
  store ptr %36, ptr %11, align 8, !tbaa !4
  %37 = load ptr, ptr %11, align 8, !tbaa !4
  %38 = getelementptr inbounds i8, ptr %37, i64 0
  %39 = load i8, ptr %38, align 1, !tbaa !57
  %40 = sext i8 %39 to i32
  %41 = icmp eq i32 %40, 0
  br i1 %41, label %42, label %43

42:                                               ; preds = %33
  br label %49

43:                                               ; preds = %33
  %44 = load ptr, ptr %11, align 8, !tbaa !4
  %45 = call i32 @strcmp(ptr noundef %44, ptr noundef @.str.77) #25
  %46 = icmp eq i32 %45, 0
  br i1 %46, label %47, label %48

47:                                               ; preds = %43
  store i32 1, ptr %12, align 4, !tbaa !10
  br label %48

48:                                               ; preds = %47, %43
  br label %33, !llvm.loop !401

49:                                               ; preds = %42
  %50 = load i32, ptr %12, align 4, !tbaa !10
  %51 = icmp ne i32 %50, 0
  br i1 %51, label %54, label %52

52:                                               ; preds = %49
  %53 = load ptr, ptr %6, align 8, !tbaa !9
  call void @_ZL12stbi__rewindP13stbi__context(ptr noundef %53)
  store i32 0, ptr %5, align 4
  store i32 1, ptr %14, align 4
  br label %92

54:                                               ; preds = %49
  %55 = load ptr, ptr %6, align 8, !tbaa !9
  %56 = getelementptr inbounds [1024 x i8], ptr %10, i64 0, i64 0
  %57 = call noundef ptr @_ZL18stbi__hdr_gettokenP13stbi__contextPc(ptr noundef %55, ptr noundef %56)
  store ptr %57, ptr %11, align 8, !tbaa !4
  %58 = load ptr, ptr %11, align 8, !tbaa !4
  %59 = call i32 @strncmp(ptr noundef %58, ptr noundef @.str.79, i64 noundef 3) #25
  %60 = icmp ne i32 %59, 0
  br i1 %60, label %61, label %63

61:                                               ; preds = %54
  %62 = load ptr, ptr %6, align 8, !tbaa !9
  call void @_ZL12stbi__rewindP13stbi__context(ptr noundef %62)
  store i32 0, ptr %5, align 4
  store i32 1, ptr %14, align 4
  br label %92

63:                                               ; preds = %54
  %64 = load ptr, ptr %11, align 8, !tbaa !4
  %65 = getelementptr inbounds i8, ptr %64, i64 3
  store ptr %65, ptr %11, align 8, !tbaa !4
  %66 = load ptr, ptr %11, align 8, !tbaa !4
  %67 = call i64 @strtol(ptr noundef %66, ptr noundef %11, i32 noundef 10) #22
  %68 = trunc i64 %67 to i32
  %69 = load ptr, ptr %8, align 8, !tbaa !12
  store i32 %68, ptr %69, align 4, !tbaa !10
  br label %70

70:                                               ; preds = %75, %63
  %71 = load ptr, ptr %11, align 8, !tbaa !4
  %72 = load i8, ptr %71, align 1, !tbaa !57
  %73 = sext i8 %72 to i32
  %74 = icmp eq i32 %73, 32
  br i1 %74, label %75, label %78

75:                                               ; preds = %70
  %76 = load ptr, ptr %11, align 8, !tbaa !4
  %77 = getelementptr inbounds nuw i8, ptr %76, i32 1
  store ptr %77, ptr %11, align 8, !tbaa !4
  br label %70, !llvm.loop !402

78:                                               ; preds = %70
  %79 = load ptr, ptr %11, align 8, !tbaa !4
  %80 = call i32 @strncmp(ptr noundef %79, ptr noundef @.str.81, i64 noundef 3) #25
  %81 = icmp ne i32 %80, 0
  br i1 %81, label %82, label %84

82:                                               ; preds = %78
  %83 = load ptr, ptr %6, align 8, !tbaa !9
  call void @_ZL12stbi__rewindP13stbi__context(ptr noundef %83)
  store i32 0, ptr %5, align 4
  store i32 1, ptr %14, align 4
  br label %92

84:                                               ; preds = %78
  %85 = load ptr, ptr %11, align 8, !tbaa !4
  %86 = getelementptr inbounds i8, ptr %85, i64 3
  store ptr %86, ptr %11, align 8, !tbaa !4
  %87 = load ptr, ptr %11, align 8, !tbaa !4
  %88 = call i64 @strtol(ptr noundef %87, ptr noundef null, i32 noundef 10) #22
  %89 = trunc i64 %88 to i32
  %90 = load ptr, ptr %7, align 8, !tbaa !12
  store i32 %89, ptr %90, align 4, !tbaa !10
  %91 = load ptr, ptr %9, align 8, !tbaa !12
  store i32 3, ptr %91, align 4, !tbaa !10
  store i32 1, ptr %5, align 4
  store i32 1, ptr %14, align 4
  br label %92

92:                                               ; preds = %84, %82, %61, %52, %30
  call void @llvm.lifetime.end.p0(i64 4, ptr %13) #22
  call void @llvm.lifetime.end.p0(i64 4, ptr %12) #22
  call void @llvm.lifetime.end.p0(i64 8, ptr %11) #22
  call void @llvm.lifetime.end.p0(i64 1024, ptr %10) #22
  %93 = load i32, ptr %5, align 4
  ret i32 %93
}