; Function Attrs: mustprogress uwtable
define internal fastcc noundef range(i32 0, 2) i32 @_ZL14stbi__hdr_infoP13stbi__contextPiS1_S1_(ptr noundef nonnull %0, ptr noundef writeonly %1, ptr noundef writeonly %2, ptr noundef writeonly %3) unnamed_addr #5 {
  %5 = alloca [1024 x i8], align 16
  %6 = alloca ptr, align 8
  call void @llvm.lifetime.start.p0(i64 1024, ptr nonnull %5) #40
  call void @llvm.lifetime.start.p0(i64 8, ptr nonnull %6) #40
  %.not = icmp eq ptr %1, null
  %.not17 = icmp eq ptr %2, null
  %.not18 = icmp eq ptr %3, null
  %7 = tail call fastcc noundef i32 @_ZL14stbi__hdr_testP13stbi__context(ptr noundef %0)
  %8 = icmp eq i32 %7, 0
  br i1 %8, label %12, label %.preheader

.preheader:                                       ; preds = %4
  %9 = call fastcc noundef ptr @_ZL18stbi__hdr_gettokenP13stbi__contextPc(ptr noundef %0, ptr noundef %5)
  %10 = load i8, ptr %5, align 16, !tbaa !22
  %11 = icmp eq i8 %10, 0
  br i1 %11, label %._crit_edge.thread, label %.lr.ph

12:                                               ; preds = %4
  %13 = getelementptr inbounds nuw i8, ptr %0, i64 208
  %14 = load ptr, ptr %13, align 8, !tbaa !19
  %15 = getelementptr inbounds nuw i8, ptr %0, i64 192
  store ptr %14, ptr %15, align 8, !tbaa !20
  %16 = getelementptr inbounds nuw i8, ptr %0, i64 216
  %17 = load ptr, ptr %16, align 8, !tbaa !24
  %18 = getelementptr inbounds nuw i8, ptr %0, i64 200
  store ptr %17, ptr %18, align 8, !tbaa !23
  br label %.cont22

.lr.ph:                                           ; preds = %.preheader, %.lr.ph
  %.029 = phi i32 [ %spec.select, %.lr.ph ], [ 0, %.preheader ]
  %bcmp = call i32 @bcmp(ptr noundef nonnull dereferenceable(23) %5, ptr noundef nonnull dereferenceable(23) @.str.77, i64 23)
  %19 = icmp eq i32 %bcmp, 0
  %spec.select = select i1 %19, i32 1, i32 %.029
  %20 = call fastcc noundef ptr @_ZL18stbi__hdr_gettokenP13stbi__contextPc(ptr noundef %0, ptr noundef %5)
  %21 = load i8, ptr %5, align 16, !tbaa !22
  %22 = icmp eq i8 %21, 0
  br i1 %22, label %._crit_edge, label %.lr.ph, !llvm.loop !406

._crit_edge:                                      ; preds = %.lr.ph
  %23 = icmp eq i32 %spec.select, 0
  br i1 %23, label %._crit_edge.thread, label %30

._crit_edge.thread:                               ; preds = %.preheader, %._crit_edge
  %24 = getelementptr inbounds nuw i8, ptr %0, i64 208
  %25 = load ptr, ptr %24, align 8, !tbaa !19
  %26 = getelementptr inbounds nuw i8, ptr %0, i64 192
  store ptr %25, ptr %26, align 8, !tbaa !20
  %27 = getelementptr inbounds nuw i8, ptr %0, i64 216
  %28 = load ptr, ptr %27, align 8, !tbaa !24
  %29 = getelementptr inbounds nuw i8, ptr %0, i64 200
  store ptr %28, ptr %29, align 8, !tbaa !23
  br label %.cont22

30:                                               ; preds = %._crit_edge
  %31 = call fastcc noundef ptr @_ZL18stbi__hdr_gettokenP13stbi__contextPc(ptr noundef %0, ptr noundef %5)
  %bcmp28 = call i32 @bcmp(ptr noundef nonnull dereferenceable(3) %5, ptr noundef nonnull dereferenceable(3) @.str.79, i64 3)
  %.not20 = icmp eq i32 %bcmp28, 0
  br i1 %.not20, label %39, label %32

32:                                               ; preds = %30
  %33 = getelementptr inbounds nuw i8, ptr %0, i64 208
  %34 = load ptr, ptr %33, align 8, !tbaa !19
  %35 = getelementptr inbounds nuw i8, ptr %0, i64 192
  store ptr %34, ptr %35, align 8, !tbaa !20
  %36 = getelementptr inbounds nuw i8, ptr %0, i64 216
  %37 = load ptr, ptr %36, align 8, !tbaa !24
  %38 = getelementptr inbounds nuw i8, ptr %0, i64 200
  store ptr %37, ptr %38, align 8, !tbaa !23
  br label %.cont22

39:                                               ; preds = %30
  %40 = getelementptr inbounds nuw i8, ptr %5, i64 3
  store ptr %40, ptr %6, align 8, !tbaa !4
  %41 = call i64 @strtol(ptr noundef nonnull %40, ptr noundef nonnull %6, i32 noundef 10) #40
  br i1 %.not17, label %.cont, label %.else

.else:                                            ; preds = %39
  %42 = trunc i64 %41 to i32
  store i32 %42, ptr %2, align 4, !tbaa !9
  br label %.cont

.cont:                                            ; preds = %39, %.else
  %.promoted = load ptr, ptr %6, align 8, !tbaa !4
  br label %43

43:                                               ; preds = %43, %.cont
  %44 = phi ptr [ %46, %43 ], [ %.promoted, %.cont ]
  %45 = load i8, ptr %44, align 1, !tbaa !22
  %46 = getelementptr inbounds nuw i8, ptr %44, i64 1
  switch i8 %45, label %.tail.thread [
    i8 32, label %43
    i8 43, label %sub_1
  ]

sub_1:                                            ; preds = %43
  %47 = load i8, ptr %46, align 1
  %.not32 = icmp eq i8 %47, 88
  br i1 %.not32, label %.tail, label %.tail.thread

.tail:                                            ; preds = %sub_1
  %48 = getelementptr inbounds nuw i8, ptr %44, i64 2
  %49 = load i8, ptr %48, align 1
  %50 = icmp eq i8 %49, 32
  br i1 %50, label %57, label %.tail.thread

.tail.thread:                                     ; preds = %43, %sub_1, %.tail
  %51 = getelementptr inbounds nuw i8, ptr %0, i64 208
  %52 = load ptr, ptr %51, align 8, !tbaa !19
  %53 = getelementptr inbounds nuw i8, ptr %0, i64 192
  store ptr %52, ptr %53, align 8, !tbaa !20
  %54 = getelementptr inbounds nuw i8, ptr %0, i64 216
  %55 = load ptr, ptr %54, align 8, !tbaa !24
  %56 = getelementptr inbounds nuw i8, ptr %0, i64 200
  store ptr %55, ptr %56, align 8, !tbaa !23
  br label %.cont22

57:                                               ; preds = %.tail
  %58 = getelementptr inbounds nuw i8, ptr %44, i64 3
  store ptr %58, ptr %6, align 8, !tbaa !4
  %59 = call i64 @strtol(ptr noundef nonnull captures(none) %58, ptr noundef null, i32 noundef 10) #40
  br i1 %.not, label %.cont25, label %.else27

.else27:                                          ; preds = %57
  %60 = trunc i64 %59 to i32
  store i32 %60, ptr %1, align 4, !tbaa !9
  br label %.cont25

.cont25:                                          ; preds = %57, %.else27
  br i1 %.not18, label %.cont22, label %.else24

.else24:                                          ; preds = %.cont25
  store i32 3, ptr %3, align 4, !tbaa !9
  br label %.cont22

.cont22:                                          ; preds = %.else24, %.cont25, %.tail.thread, %32, %._crit_edge.thread, %12
  %.016 = phi i32 [ 0, %12 ], [ 0, %32 ], [ 0, %.tail.thread ], [ 0, %._crit_edge.thread ], [ 1, %.cont25 ], [ 1, %.else24 ]
  call void @llvm.lifetime.end.p0(i64 8, ptr nonnull %6) #40
  call void @llvm.lifetime.end.p0(i64 1024, ptr nonnull %5) #40
  ret i32 %.016
}